target datalayout = "e-m:e-p270:32:32-p271:32:32-p272:64:64-i64:64-i128:128-f80:128-n8:16:32:64-S128"
target triple = "x86_64-pc-linux-gnu"

%struct.expert_field = type { i32, i32 }
%struct._packet_info = type { ptr, ptr, i32, i32, %struct.nstime_t, %struct.nstime_t, %struct.nstime_t, i8, ptr, ptr, ptr, ptr, %struct._address, %struct._address, %struct._address, %struct._address, %struct._address, %struct._address, i32, ptr, i8, [3 x i8], %struct.anon, i32, i32, i32, i32, ptr, i8, ptr, ptr, i16, i16, i32, i32, i16, i32, i32, ptr, ptr, ptr, i8, i8, i16, i16, i16, i32, i16, i16, ptr, ptr, ptr, ptr, ptr, i32, i32 }
%struct.nstime_t = type { i64, i32 }
%struct._address = type { i32, i32, ptr, ptr }
%struct.anon = type { i8, [3 x i8] }

@hf_bytes = internal global i32 0, align 4
@hf_folder = internal global i32 0, align 4
@hf_knxip_structure_length = internal global i32 0, align 4
@hf_knxip_status = internal global i32 0, align 4
@hf_knxip_routing_loss = internal global i32 0, align 4
@ett_loss = internal global i32 0, align 4
@ei_knxip_error = hidden global %struct.expert_field zeroinitializer, align 4
@.str.231 = private unnamed_addr constant [3 x i8] c"? \00", align 1
@.str.236 = private unnamed_addr constant [20 x i8] c"Available: %u bytes\00", align 1
@.str.246 = private unnamed_addr constant [26 x i8] c"? Unknown data (%d bytes)\00", align 1
@.str.263 = private unnamed_addr constant [5 x i8] c": %s\00", align 1
@.str.266 = private unnamed_addr constant [4 x i8] c"???\00", align 1
@.str.311 = private unnamed_addr constant [9 x i8] c"Missing \00", align 1
@.str.322 = private unnamed_addr constant [3 x i8] c"%u\00", align 1
@.str.327 = private unnamed_addr constant [9 x i8] c"%u bytes\00", align 1
@.str.405 = private unnamed_addr constant [18 x i8] c"Expected: 4 bytes\00", align 1
@.str.431 = private unnamed_addr constant [10 x i8] c"Loss Info\00", align 1

; Function Attrs: null_pointer_is_valid sspstrong uwtable
define internal ptr @knxip_tree_add_unknown_data(ptr noundef %0, ptr noundef %1, i32 noundef %2, i32 noundef %3) #0 {
  %5 = alloca ptr, align 8
  %6 = alloca ptr, align 8
  %7 = alloca i32, align 4
  %8 = alloca i32, align 4
  store ptr %0, ptr %5, align 8
  store ptr %1, ptr %6, align 8
  store i32 %2, ptr %7, align 4
  store i32 %3, ptr %8, align 4
  %9 = load ptr, ptr %5, align 8
  %10 = load i32, ptr @hf_bytes, align 4
  %11 = load ptr, ptr %6, align 8
  %12 = load i32, ptr %7, align 4
  %13 = load i32, ptr %8, align 4
  %14 = load i32, ptr %8, align 4
  %15 = call ptr (ptr, i32, ptr, i32, i32, ptr, ptr, ...) @proto_tree_add_bytes_format(ptr noundef %9, i32 noundef %10, ptr noundef %11, i32 noundef %12, i32 noundef %13, ptr noundef null, ptr noundef @.str.246, i32 noundef %14)
  ret ptr %15
}

; Function Attrs: null_pointer_is_valid sspstrong uwtable
define internal ptr @knxip_tree_add_status(ptr noundef %0, ptr noundef %1, i32 noundef %2) #0 {
  %4 = alloca ptr, align 8
  %5 = alloca ptr, align 8
  %6 = alloca i32, align 4
  store ptr %0, ptr %4, align 8
  store ptr %1, ptr %5, align 8
  store i32 %2, ptr %6, align 4
  %7 = load ptr, ptr %4, align 8
  %8 = load i32, ptr @hf_knxip_status, align 4
  %9 = load ptr, ptr %5, align 8
  %10 = load i32, ptr %6, align 4
  %11 = call ptr @proto_tree_add_item(ptr noundef %7, i32 noundef %8, ptr noundef %9, i32 noundef %10, i32 noundef 1, i32 noundef 0)
  ret ptr %11
}

; Function Attrs: null_pointer_is_valid sspstrong uwtable
define internal ptr @knxip_tree_add_length(ptr noundef %0, ptr noundef %1, i32 noundef %2, i32 noundef %3) #0 {
  %5 = alloca ptr, align 8
  %6 = alloca ptr, align 8
  %7 = alloca i32, align 4
  %8 = alloca i32, align 4
  store ptr %0, ptr %5, align 8
  store ptr %1, ptr %6, align 8
  store i32 %2, ptr %7, align 4
  store i32 %3, ptr %8, align 4
  %9 = load ptr, ptr %5, align 8
  %10 = load i32, ptr @hf_knxip_structure_length, align 4
  %11 = load ptr, ptr %6, align 8
  %12 = load i32, ptr %7, align 4
  %13 = load i32, ptr %8, align 4
  %14 = load i32, ptr %8, align 4
  %15 = call ptr (ptr, i32, ptr, i32, i32, i32, ptr, ...) @proto_tree_add_uint_format_value(ptr noundef %9, i32 noundef %10, ptr noundef %11, i32 noundef %12, i32 noundef 1, i32 noundef %13, ptr noundef @.str.327, i32 noundef %14)
  ret ptr %15
}

; Function Attrs: null_pointer_is_valid sspstrong uwtable
define internal zeroext i8 @dissect_routing_loss(ptr noundef %0, ptr noundef %1, ptr noundef %2, ptr noundef %3, ptr noundef %4) #0 {
  %6 = alloca ptr, align 8
  %7 = alloca ptr, align 8
  %8 = alloca ptr, align 8
  %9 = alloca ptr, align 8
  %10 = alloca ptr, align 8
  %11 = alloca i32, align 4
  %12 = alloca i32, align 4
  %13 = alloca i8, align 1
  %14 = alloca i32, align 4
  %15 = alloca i8, align 1
  %16 = alloca ptr, align 8
  %17 = alloca [16 x i8], align 16
  %18 = alloca ptr, align 8
  %19 = alloca ptr, align 8
  %20 = alloca i32, align 4
  %21 = alloca i16, align 2
  store ptr %0, ptr %6, align 8
  store ptr %1, ptr %7, align 8
  store ptr %2, ptr %8, align 8
  store ptr %3, ptr %9, align 8
  store ptr %4, ptr %10, align 8
  call void @llvm.lifetime.start.p0(i64 4, ptr %11) #9
  %22 = load ptr, ptr %10, align 8
  %23 = load i32, ptr %22, align 4
  store i32 %23, ptr %11, align 4
  call void @llvm.lifetime.start.p0(i64 4, ptr %12) #9
  %24 = load ptr, ptr %6, align 8
  %25 = load i32, ptr %11, align 4
  %26 = call i32 @tvb_captured_length_remaining(ptr noundef %24, i32 noundef %25)
  store i32 %26, ptr %12, align 4
  call void @llvm.lifetime.start.p0(i64 1, ptr %13) #9
  %27 = load i32, ptr %12, align 4
  %28 = icmp sle i32 %27, 0
  br i1 %28, label %29, label %30

29:                                               ; preds = %5
  br label %35

30:                                               ; preds = %5
  %31 = load ptr, ptr %6, align 8
  %32 = load i32, ptr %11, align 4
  %33 = call zeroext i8 @tvb_get_uint8(ptr noundef %31, i32 noundef %32)
  %34 = zext i8 %33 to i32
  br label %35

35:                                               ; preds = %30, %29
  %36 = phi i32 [ 0, %29 ], [ %34, %30 ]
  %37 = trunc i32 %36 to i8
  store i8 %37, ptr %13, align 1
  call void @llvm.lifetime.start.p0(i64 4, ptr %14) #9
  %38 = load i8, ptr %13, align 1
  %39 = zext i8 %38 to i32
  %40 = load i32, ptr %12, align 4
  %41 = icmp sle i32 %39, %40
  br i1 %41, label %42, label %45

42:                                               ; preds = %35
  %43 = load i8, ptr %13, align 1
  %44 = zext i8 %43 to i32
  br label %47

45:                                               ; preds = %35
  %46 = load i32, ptr %12, align 4
  br label %47

47:                                               ; preds = %45, %42
  %48 = phi i32 [ %44, %42 ], [ %46, %45 ]
  store i32 %48, ptr %14, align 4
  call void @llvm.lifetime.start.p0(i64 1, ptr %15) #9
  store i8 0, ptr %15, align 1
  call void @llvm.lifetime.start.p0(i64 8, ptr %16) #9
  %49 = load ptr, ptr %9, align 8
  %50 = load i32, ptr @hf_folder, align 4
  %51 = load ptr, ptr %6, align 8
  %52 = load i32, ptr %11, align 4
  %53 = load i8, ptr %13, align 1
  %54 = zext i8 %53 to i32
  %55 = call ptr (ptr, i32, ptr, i32, i32, ptr, ...) @proto_tree_add_none_format(ptr noundef %49, i32 noundef %50, ptr noundef %51, i32 noundef %52, i32 noundef %54, ptr noundef @.str.431)
  store ptr %55, ptr %16, align 8
  call void @llvm.lifetime.start.p0(i64 16, ptr %17) #9
  %56 = getelementptr inbounds [16 x i8], ptr %17, i64 0, i64 0
  %57 = call i32 (ptr, i64, i32, i64, ptr, ...) @__snprintf_chk(ptr noundef %56, i64 noundef 16, i32 noundef 2, i64 noundef 16, ptr noundef @.str.266)
  %58 = load i8, ptr %13, align 1
  %59 = zext i8 %58 to i32
  %60 = icmp sle i32 %59, 0
  br i1 %60, label %61, label %66

61:                                               ; preds = %47
  %62 = load ptr, ptr %16, align 8
  call void (ptr, ptr, ...) @proto_item_prepend_text(ptr noundef %62, ptr noundef @.str.311)
  %63 = load ptr, ptr %7, align 8
  %64 = load ptr, ptr %16, align 8
  %65 = call ptr (ptr, ptr, ptr, ptr, ...) @expert_add_info_format(ptr noundef %63, ptr noundef %64, ptr noundef @ei_knxip_error, ptr noundef @.str.405)
  br label %151

66:                                               ; preds = %47
  call void @llvm.lifetime.start.p0(i64 8, ptr %18) #9
  %67 = load ptr, ptr %16, align 8
  %68 = load i32, ptr @ett_loss, align 4
  %69 = call ptr @proto_item_add_subtree(ptr noundef %67, i32 noundef %68)
  store ptr %69, ptr %18, align 8
  call void @llvm.lifetime.start.p0(i64 8, ptr %19) #9
  %70 = load ptr, ptr %18, align 8
  %71 = load ptr, ptr %6, align 8
  %72 = load i32, ptr %11, align 4
  %73 = load i8, ptr %13, align 1
  %74 = zext i8 %73 to i32
  %75 = call ptr @knxip_tree_add_length(ptr noundef %70, ptr noundef %71, i32 noundef %72, i32 noundef %74)
  store ptr %75, ptr %19, align 8
  call void @llvm.lifetime.start.p0(i64 4, ptr %20) #9
  %76 = load i32, ptr %11, align 4
  %77 = load i32, ptr %14, align 4
  %78 = add i32 %76, %77
  store i32 %78, ptr %20, align 4
  %79 = load i32, ptr %11, align 4
  %80 = add i32 %79, 1
  store i32 %80, ptr %11, align 4
  %81 = load i8, ptr %13, align 1
  %82 = zext i8 %81 to i32
  %83 = icmp eq i32 %82, 4
  br i1 %83, label %84, label %85

84:                                               ; preds = %66
  store i8 1, ptr %15, align 1
  br label %89

85:                                               ; preds = %66
  %86 = load ptr, ptr %7, align 8
  %87 = load ptr, ptr %19, align 8
  %88 = call ptr (ptr, ptr, ptr, ptr, ...) @expert_add_info_format(ptr noundef %86, ptr noundef %87, ptr noundef @ei_knxip_error, ptr noundef @.str.405)
  br label %89

89:                                               ; preds = %85, %84
  %90 = load i8, ptr %13, align 1
  %91 = zext i8 %90 to i32
  %92 = load i32, ptr %12, align 4
  %93 = icmp sgt i32 %91, %92
  br i1 %93, label %94, label %101

94:                                               ; preds = %89
  %95 = load ptr, ptr %7, align 8
  %96 = load ptr, ptr %19, align 8
  %97 = load i32, ptr %12, align 4
  %98 = call ptr (ptr, ptr, ptr, ptr, ...) @expert_add_info_format(ptr noundef %95, ptr noundef %96, ptr noundef @ei_knxip_error, ptr noundef @.str.236, i32 noundef %97)
  %99 = load i32, ptr %12, align 4
  %100 = trunc i32 %99 to i8
  store i8 %100, ptr %13, align 1
  store i8 0, ptr %15, align 1
  br label %101

101:                                              ; preds = %94, %89
  %102 = load i8, ptr %15, align 1
  %103 = icmp ne i8 %102, 0
  br i1 %103, label %106, label %104

104:                                              ; preds = %101
  %105 = load ptr, ptr %19, align 8
  call void (ptr, ptr, ...) @proto_item_prepend_text(ptr noundef %105, ptr noundef @.str.231)
  br label %106

106:                                              ; preds = %104, %101
  %107 = load i8, ptr %13, align 1
  %108 = zext i8 %107 to i32
  %109 = icmp sge i32 %108, 2
  br i1 %109, label %110, label %150

110:                                              ; preds = %106
  %111 = load ptr, ptr %18, align 8
  %112 = load ptr, ptr %6, align 8
  %113 = load i32, ptr %11, align 4
  %114 = call ptr @knxip_tree_add_status(ptr noundef %111, ptr noundef %112, i32 noundef %113)
  %115 = load i32, ptr %11, align 4
  %116 = add i32 %115, 1
  store i32 %116, ptr %11, align 4
  %117 = load i8, ptr %13, align 1
  %118 = zext i8 %117 to i32
  %119 = icmp sge i32 %118, 4
  br i1 %119, label %120, label %135

120:                                              ; preds = %110
  call void @llvm.lifetime.start.p0(i64 2, ptr %21) #9
  %121 = load ptr, ptr %6, align 8
  %122 = load i32, ptr %11, align 4
  %123 = call zeroext i16 @tvb_get_ntohs(ptr noundef %121, i32 noundef %122)
  store i16 %123, ptr %21, align 2
  %124 = getelementptr inbounds [16 x i8], ptr %17, i64 0, i64 0
  %125 = load i16, ptr %21, align 2
  %126 = zext i16 %125 to i32
  %127 = call i32 (ptr, i64, i32, i64, ptr, ...) @__snprintf_chk(ptr noundef %124, i64 noundef 16, i32 noundef 2, i64 noundef 16, ptr noundef @.str.322, i32 noundef %126)
  %128 = load ptr, ptr %18, align 8
  %129 = load i32, ptr @hf_knxip_routing_loss, align 4
  %130 = load ptr, ptr %6, align 8
  %131 = load i32, ptr %11, align 4
  %132 = call ptr @proto_tree_add_item(ptr noundef %128, i32 noundef %129, ptr noundef %130, i32 noundef %131, i32 noundef 2, i32 noundef 0)
  %133 = load i32, ptr %11, align 4
  %134 = add i32 %133, 2
  store i32 %134, ptr %11, align 4
  call void @llvm.lifetime.end.p0(i64 2, ptr %21) #9
  br label %135

135:                                              ; preds = %120, %110
  %136 = load i32, ptr %11, align 4
  %137 = load i32, ptr %20, align 4
  %138 = icmp slt i32 %136, %137
  br i1 %138, label %139, label %147

139:                                              ; preds = %135
  %140 = load ptr, ptr %18, align 8
  %141 = load ptr, ptr %6, align 8
  %142 = load i32, ptr %11, align 4
  %143 = load i32, ptr %20, align 4
  %144 = load i32, ptr %11, align 4
  %145 = sub i32 %143, %144
  %146 = call ptr @knxip_tree_add_unknown_data(ptr noundef %140, ptr noundef %141, i32 noundef %142, i32 noundef %145)
  br label %147

147:                                              ; preds = %139, %135
  %148 = load ptr, ptr %16, align 8
  %149 = getelementptr inbounds [16 x i8], ptr %17, i64 0, i64 0
  call void (ptr, ptr, ...) @proto_item_append_text(ptr noundef %148, ptr noundef @.str.263, ptr noundef %149)
  br label %150

150:                                              ; preds = %147, %106
  call void @llvm.lifetime.end.p0(i64 4, ptr %20) #9
  call void @llvm.lifetime.end.p0(i64 8, ptr %19) #9
  call void @llvm.lifetime.end.p0(i64 8, ptr %18) #9
  br label %151

151:                                              ; preds = %150, %61
  %152 = load ptr, ptr %7, align 8
  %153 = icmp ne ptr %152, null
  br i1 %153, label %154, label %159

154:                                              ; preds = %151
  %155 = load ptr, ptr %7, align 8
  %156 = getelementptr inbounds nuw %struct._packet_info, ptr %155, i32 0, i32 1
  %157 = load ptr, ptr %156, align 8
  %158 = getelementptr inbounds [16 x i8], ptr %17, i64 0, i64 0
  call void (ptr, i32, ptr, ...) @col_append_fstr(ptr noundef %157, i32 noundef 25, ptr noundef @.str.263, ptr noundef %158)
  br label %159

159:                                              ; preds = %154, %151
  %160 = load ptr, ptr %8, align 8
  %161 = getelementptr inbounds [16 x i8], ptr %17, i64 0, i64 0
  call void (ptr, ptr, ...) @proto_item_append_text(ptr noundef %160, ptr noundef @.str.263, ptr noundef %161)
  %162 = load i8, ptr %15, align 1
  %163 = icmp ne i8 %162, 0
  br i1 %163, label %166, label %164

164:                                              ; preds = %159
  %165 = load ptr, ptr %16, align 8
  call void (ptr, ptr, ...) @proto_item_prepend_text(ptr noundef %165, ptr noundef @.str.231)
  br label %166

166:                                              ; preds = %164, %159
  %167 = load i8, ptr %13, align 1
  %168 = zext i8 %167 to i32
  %169 = load ptr, ptr %10, align 8
  %170 = load i32, ptr %169, align 4
  %171 = add i32 %170, %168
  store i32 %171, ptr %169, align 4
  %172 = load i8, ptr %15, align 1
  call void @llvm.lifetime.end.p0(i64 16, ptr %17) #9
  call void @llvm.lifetime.end.p0(i64 8, ptr %16) #9
  call void @llvm.lifetime.end.p0(i64 1, ptr %15) #9
  call void @llvm.lifetime.end.p0(i64 4, ptr %14) #9
  call void @llvm.lifetime.end.p0(i64 1, ptr %13) #9
  call void @llvm.lifetime.end.p0(i64 4, ptr %12) #9
  call void @llvm.lifetime.end.p0(i64 4, ptr %11) #9
  ret i8 %172
}