; Function Attrs: null_pointer_is_valid sspstrong uwtable
define internal fastcc zeroext range(i8 0, 2) i8 @dissect_routing_loss(ptr noundef %0, ptr noundef %1, ptr noundef %2, ptr noundef %3, ptr noundef captures(none) %4) unnamed_addr #0 {
  %6 = alloca [16 x i8], align 16
  %7 = load i32, ptr %4, align 4
  %8 = tail call i32 @tvb_captured_length_remaining(ptr noundef %0, i32 noundef %7)
  %9 = icmp slt i32 %8, 1
  br i1 %9, label %12, label %10

10:                                               ; preds = %5
  %11 = tail call zeroext i8 @tvb_get_uint8(ptr noundef %0, i32 noundef %7)
  br label %12

12:                                               ; preds = %5, %10
  %13 = phi i8 [ %11, %10 ], [ 0, %5 ]
  %14 = zext i8 %13 to i32
  %15 = load i32, ptr @hf_folder, align 4
  %16 = tail call ptr (ptr, i32, ptr, i32, i32, ptr, ...) @proto_tree_add_none_format(ptr noundef %3, i32 noundef %15, ptr noundef %0, i32 noundef %7, i32 noundef %14, ptr noundef nonnull @.str.431)
  call void @llvm.lifetime.start.p0(i64 16, ptr nonnull %6) #11
  %17 = call i32 (ptr, i64, i32, i64, ptr, ...) @__snprintf_chk(ptr noundef nonnull %6, i64 noundef 16, i32 noundef 2, i64 noundef 16, ptr noundef nonnull @.str.266)
  %18 = icmp eq i8 %13, 0
  br i1 %18, label %19, label %21

19:                                               ; preds = %12
  call void (ptr, ptr, ...) @proto_item_prepend_text(ptr noundef %16, ptr noundef nonnull @.str.311)
  %20 = call ptr (ptr, ptr, ptr, ptr, ...) @expert_add_info_format(ptr noundef %1, ptr noundef %16, ptr noundef nonnull @ei_knxip_error, ptr noundef nonnull @.str.405)
  br label %54

21:                                               ; preds = %12
  %22 = call i32 @llvm.smin.i32(i32 %8, i32 %14)
  %23 = load i32, ptr @ett_loss, align 4
  %24 = call ptr @proto_item_add_subtree(ptr noundef %16, i32 noundef %23)
  %25 = load i32, ptr @hf_knxip_structure_length, align 4
  %26 = call ptr (ptr, i32, ptr, i32, i32, i32, ptr, ...) @proto_tree_add_uint_format_value(ptr noundef %24, i32 noundef %25, ptr noundef %0, i32 noundef %7, i32 noundef 1, i32 noundef range(i32 1, 256) %14, ptr noundef nonnull @.str.327, i32 noundef range(i32 1, 256) %14)
  %27 = add i32 %22, %7
  %28 = add i32 %7, 1
  %.not = icmp eq i8 %13, 4
  br i1 %.not, label %29, label %.thread82

29:                                               ; preds = %21
  %30 = icmp slt i32 %8, %14
  br i1 %30, label %.thread, label %.thread84

.thread82:                                        ; preds = %21
  %31 = call ptr (ptr, ptr, ptr, ptr, ...) @expert_add_info_format(ptr noundef %1, ptr noundef %26, ptr noundef nonnull @ei_knxip_error, ptr noundef nonnull @.str.405)
  %32 = icmp slt i32 %8, %14
  br i1 %32, label %.thread, label %.thread83

.thread:                                          ; preds = %.thread82, %29
  %33 = call ptr (ptr, ptr, ptr, ptr, ...) @expert_add_info_format(ptr noundef %1, ptr noundef %26, ptr noundef nonnull @ei_knxip_error, ptr noundef nonnull @.str.236, i32 noundef %8)
  %34 = trunc i32 %8 to i8
  br label %.thread83

.thread83:                                        ; preds = %.thread82, %.thread
  %.181 = phi i8 [ %34, %.thread ], [ %13, %.thread82 ]
  call void (ptr, ptr, ...) @proto_item_prepend_text(ptr noundef %26, ptr noundef nonnull @.str.231)
  %35 = icmp ugt i8 %.181, 1
  br i1 %35, label %.thread84, label %54

.thread84:                                        ; preds = %29, %.thread83
  %.27888 = phi i8 [ 0, %.thread83 ], [ 1, %29 ]
  %.18087 = phi i8 [ %.181, %.thread83 ], [ 4, %29 ]
  %36 = load i32, ptr @hf_knxip_status, align 4
  %37 = call ptr @proto_tree_add_item(ptr noundef %24, i32 noundef %36, ptr noundef %0, i32 noundef %28, i32 noundef 1, i32 noundef 0)
  %38 = add i32 %7, 2
  %39 = icmp ugt i8 %.18087, 3
  br i1 %39, label %40, label %47

40:                                               ; preds = %.thread84
  %41 = call zeroext i16 @tvb_get_ntohs(ptr noundef %0, i32 noundef %38)
  %42 = zext i16 %41 to i32
  %43 = call i32 (ptr, i64, i32, i64, ptr, ...) @__snprintf_chk(ptr noundef nonnull %6, i64 noundef 16, i32 noundef 2, i64 noundef 16, ptr noundef nonnull @.str.322, i32 noundef %42)
  %44 = load i32, ptr @hf_knxip_routing_loss, align 4
  %45 = call ptr @proto_tree_add_item(ptr noundef %24, i32 noundef %44, ptr noundef %0, i32 noundef %38, i32 noundef 2, i32 noundef 0)
  %46 = add i32 %7, 4
  br label %47

47:                                               ; preds = %40, %.thread84
  %.0 = phi i32 [ %46, %40 ], [ %38, %.thread84 ]
  %48 = icmp slt i32 %.0, %27
  br i1 %48, label %49, label %53

49:                                               ; preds = %47
  %50 = sub i32 %27, %.0
  %51 = load i32, ptr @hf_bytes, align 4
  %52 = call ptr (ptr, i32, ptr, i32, i32, ptr, ptr, ...) @proto_tree_add_bytes_format(ptr noundef %24, i32 noundef %51, ptr noundef %0, i32 noundef %.0, i32 noundef %50, ptr noundef null, ptr noundef nonnull @.str.246, i32 noundef %50)
  br label %53

53:                                               ; preds = %49, %47
  call void (ptr, ptr, ...) @proto_item_append_text(ptr noundef %16, ptr noundef nonnull @.str.263, ptr noundef nonnull %6)
  br label %54

54:                                               ; preds = %.thread83, %53, %19
  %.066 = phi i8 [ 0, %19 ], [ %.27888, %53 ], [ 0, %.thread83 ]
  %.065 = phi i8 [ 0, %19 ], [ %.18087, %53 ], [ %.181, %.thread83 ]
  %.not73 = icmp eq ptr %1, null
  br i1 %.not73, label %58, label %55

55:                                               ; preds = %54
  %56 = getelementptr inbounds nuw i8, ptr %1, i64 8
  %57 = load ptr, ptr %56, align 8
  call void (ptr, i32, ptr, ...) @col_append_fstr(ptr noundef %57, i32 noundef 25, ptr noundef nonnull @.str.263, ptr noundef nonnull %6)
  br label %58

58:                                               ; preds = %55, %54
  call void (ptr, ptr, ...) @proto_item_append_text(ptr noundef %2, ptr noundef nonnull @.str.263, ptr noundef nonnull %6)
  %.not74 = icmp eq i8 %.066, 0
  br i1 %.not74, label %59, label %60

59:                                               ; preds = %58
  call void (ptr, ptr, ...) @proto_item_prepend_text(ptr noundef %16, ptr noundef nonnull @.str.231)
  br label %60

60:                                               ; preds = %59, %58
  %61 = zext i8 %.065 to i32
  %62 = load i32, ptr %4, align 4
  %63 = add i32 %62, %61
  store i32 %63, ptr %4, align 4
  call void @llvm.lifetime.end.p0(i64 16, ptr nonnull %6) #11
  ret i8 %.066
}